target datalayout = "e-m:e-p270:32:32-p271:32:32-p272:64:64-i64:64-i128:128-f80:128-n8:16:32:64-S128"
target triple = "x86_64-pc-linux-gnu"

%"class.Imath_3_2::Vec2" = type { float, float }
%"class.Imath_3_2::Vec2.0" = type { i32, i32 }

; Function Attrs: inlinehint mustprogress nounwind uwtable
define linkonce_odr hidden void @_ZN9Imath_3_24Vec2IiEC2IfEERKNS0_IT_EE(ptr noundef nonnull align 4 dereferenceable(8) %0, ptr noundef nonnull align 4 dereferenceable(8) %1) unnamed_addr #6 comdat align 2 {
  %3 = alloca ptr, align 8
  %4 = alloca ptr, align 8
  store ptr %0, ptr %3, align 8, !tbaa !35
  store ptr %1, ptr %4, align 8, !tbaa !25
  %5 = load ptr, ptr %3, align 8
  %6 = getelementptr inbounds nuw %"class.Imath_3_2::Vec2.0", ptr %5, i32 0, i32 0
  %7 = load ptr, ptr %4, align 8, !tbaa !25
  %8 = getelementptr inbounds nuw %"class.Imath_3_2::Vec2", ptr %7, i32 0, i32 0
  %9 = load float, ptr %8, align 4, !tbaa !27
  %10 = fptosi float %9 to i32
  store i32 %10, ptr %6, align 4, !tbaa !37
  %11 = getelementptr inbounds nuw %"class.Imath_3_2::Vec2.0", ptr %5, i32 0, i32 1
  %12 = load ptr, ptr %4, align 8, !tbaa !25
  %13 = getelementptr inbounds nuw %"class.Imath_3_2::Vec2", ptr %12, i32 0, i32 1
  %14 = load float, ptr %13, align 4, !tbaa !29
  %15 = fptosi float %14 to i32
  store i32 %15, ptr %11, align 4, !tbaa !39
  ret void
}

; Function Attrs: inlinehint mustprogress nounwind uwtable
define internal noundef ptr @_ZN12_GLOBAL__N_16headerEPK9ImfHeader(ptr noundef %0) #6 {
  %2 = alloca ptr, align 8
  store ptr %0, ptr %2, align 8, !tbaa !33
  %3 = load ptr, ptr %2, align 8, !tbaa !33
  ret ptr %3
}

; Function Attrs: mustprogress uwtable
define void @ImfHeaderScreenWindowCenter(ptr noundef %0, ptr noundef %1, ptr noundef %2) #7 {
  %4 = alloca ptr, align 8
  %5 = alloca ptr, align 8
  %6 = alloca ptr, align 8
  %7 = alloca ptr, align 8
  %8 = alloca %"class.Imath_3_2::Vec2.0", align 4
  store ptr %0, ptr %4, align 8, !tbaa !33
  store ptr %1, ptr %5, align 8, !tbaa !18
  store ptr %2, ptr %6, align 8, !tbaa !18
  call void @llvm.lifetime.start.p0(i64 8, ptr %7) #3
  call void @llvm.lifetime.start.p0(i64 8, ptr %8) #3
  %9 = load ptr, ptr %4, align 8, !tbaa !33
  %10 = call noundef ptr @_ZN12_GLOBAL__N_16headerEPK9ImfHeader(ptr noundef %9)
  %11 = call noundef nonnull align 4 dereferenceable(8) ptr @_ZNK7Imf_3_46Header18screenWindowCenterEv(ptr noundef nonnull align 8 dereferenceable(49) %10)
  call void @_ZN9Imath_3_24Vec2IiEC2IfEERKNS0_IT_EE(ptr noundef nonnull align 4 dereferenceable(8) %8, ptr noundef nonnull align 4 dereferenceable(8) %11) #3
  store ptr %8, ptr %7, align 8, !tbaa !35
  %12 = load ptr, ptr %7, align 8, !tbaa !35
  %13 = getelementptr inbounds nuw %"class.Imath_3_2::Vec2.0", ptr %12, i32 0, i32 0
  %14 = load i32, ptr %13, align 4, !tbaa !37
  %15 = sitofp i32 %14 to float
  %16 = load ptr, ptr %5, align 8, !tbaa !18
  store float %15, ptr %16, align 4, !tbaa !3
  %17 = load ptr, ptr %7, align 8, !tbaa !35
  %18 = getelementptr inbounds nuw %"class.Imath_3_2::Vec2.0", ptr %17, i32 0, i32 1
  %19 = load i32, ptr %18, align 4, !tbaa !39
  %20 = sitofp i32 %19 to float
  %21 = load ptr, ptr %6, align 8, !tbaa !18
  store float %20, ptr %21, align 4, !tbaa !3
  call void @llvm.lifetime.end.p0(i64 8, ptr %8) #3
  call void @llvm.lifetime.end.p0(i64 8, ptr %7) #3
  ret void
}