; Function Attrs: mustprogress uwtable
define void @ImfHeaderScreenWindowCenter(ptr noundef nonnull %0, ptr noundef writeonly captures(none) initializes((0, 4)) %1, ptr noundef writeonly captures(none) initializes((0, 4)) %2) local_unnamed_addr #8 {
  %4 = tail call noundef nonnull align 4 dereferenceable(8) ptr @_ZNK7Imf_3_46Header18screenWindowCenterEv(ptr noundef nonnull align 8 dereferenceable(49) %0)
  %5 = load float, ptr %4, align 4, !tbaa !19
  %6 = fptosi float %5 to i32
  %7 = getelementptr inbounds nuw i8, ptr %4, i64 4
  %8 = load float, ptr %7, align 4, !tbaa !21
  %9 = fptosi float %8 to i32
  %10 = sitofp i32 %6 to float
  store float %10, ptr %1, align 4, !tbaa !8
  %11 = sitofp i32 %9 to float
  store float %11, ptr %2, align 4, !tbaa !8
  ret void
}